target datalayout = "e-m:e-p270:32:32-p271:32:32-p272:64:64-i64:64-i128:128-f80:128-n8:16:32:64-S128"
target triple = "x86_64-pc-linux-gnu"

%struct.uv_stat_t = type { i64, i64, i64, i64, i64, i64, i64, i64, i64, i64, i64, i64, %struct.uv_timespec_t, %struct.uv_timespec_t, %struct.uv_timespec_t, %struct.uv_timespec_t }
%struct.uv_timespec_t = type { i64, i64 }
%struct.uv_loop_s = type { ptr, i32, [2 x ptr], %union.anon.1, ptr, i32, i64, i32, [2 x ptr], [2 x ptr], ptr, i32, i32, [2 x ptr], %union.pthread_mutex_t, %struct.uv_async_s, %union.pthread_rwlock_t, ptr, [2 x ptr], [2 x ptr], [2 x ptr], [2 x ptr], [2 x ptr], ptr, %struct.uv__io_s, i32, %struct.anon, i64, i64, [2 x i32], %struct.uv__io_s, %struct.uv_signal_s, i32, %struct.uv__io_s, ptr, i32 }
%union.anon.1 = type { ptr }
%union.pthread_mutex_t = type { %struct.__pthread_mutex_s }
%struct.__pthread_mutex_s = type { i32, i32, i32, i32, i32, i16, i16, %struct.__pthread_internal_list }
%struct.__pthread_internal_list = type { ptr, ptr }
%struct.uv_async_s = type { ptr, ptr, i32, ptr, [2 x ptr], %union.anon.2, ptr, i32, ptr, [2 x ptr], i32 }
%union.anon.2 = type { [4 x ptr] }
%union.pthread_rwlock_t = type { %struct.__pthread_rwlock_arch_t }
%struct.__pthread_rwlock_arch_t = type { i32, i32, i32, i32, i32, i32, i32, i32, i8, [7 x i8], i64, i32 }
%struct.anon = type { ptr, i32 }
%struct.uv_signal_s = type { ptr, ptr, i32, ptr, [2 x ptr], %union.anon.3, ptr, i32, ptr, i32, %struct.anon.4, i32, i32 }
%union.anon.3 = type { [4 x ptr] }
%struct.anon.4 = type { ptr, ptr, ptr, i32 }
%struct.uv__io_s = type { ptr, [2 x ptr], [2 x ptr], i32, i32, i32 }
%struct.uv_fs_poll_s = type { ptr, ptr, i32, ptr, [2 x ptr], %union.anon, ptr, i32, ptr }
%union.anon = type { [4 x ptr] }
%struct.poll_ctx = type { ptr, i32, i32, i64, ptr, ptr, %struct.uv_timer_s, %struct.uv_fs_s, %struct.uv_stat_t, ptr, [1 x i8] }
%struct.uv_timer_s = type { ptr, ptr, i32, ptr, [2 x ptr], %union.anon.5, ptr, i32, ptr, [3 x ptr], i64, i64, i64 }
%union.anon.5 = type { [4 x ptr] }
%struct.uv_fs_s = type { ptr, i32, [6 x ptr], i32, ptr, ptr, i64, ptr, ptr, %struct.uv_stat_t, ptr, i32, i32, i32, i32, ptr, i64, i32, i32, double, double, %struct.uv__work, [4 x %struct.uv_buf_t] }
%struct.uv__work = type { ptr, ptr, ptr, [2 x ptr] }
%struct.uv_buf_t = type { ptr, i64 }

; Function Attrs: nounwind uwtable
define dso_local i32 @uv_fs_poll_start(ptr noundef %0, ptr noundef %1, ptr noundef %2, i32 noundef %3) #0 {
  %5 = alloca i32, align 4
  %6 = alloca ptr, align 8
  %7 = alloca ptr, align 8
  %8 = alloca ptr, align 8
  %9 = alloca i32, align 4
  %10 = alloca ptr, align 8
  %11 = alloca ptr, align 8
  %12 = alloca i64, align 8
  %13 = alloca i32, align 4
  %14 = alloca i32, align 4
  store ptr %0, ptr %6, align 8, !tbaa !9
  store ptr %1, ptr %7, align 8, !tbaa !17
  store ptr %2, ptr %8, align 8, !tbaa !21
  store i32 %3, ptr %9, align 4, !tbaa !23
  call void @llvm.lifetime.start.p0(i64 8, ptr %10) #6
  call void @llvm.lifetime.start.p0(i64 8, ptr %11) #6
  call void @llvm.lifetime.start.p0(i64 8, ptr %12) #6
  call void @llvm.lifetime.start.p0(i64 4, ptr %13) #6
  %15 = load ptr, ptr %6, align 8, !tbaa !9
  %16 = call i32 @uv_is_active(ptr noundef %15)
  %17 = icmp ne i32 %16, 0
  br i1 %17, label %18, label %19

18:                                               ; preds = %4
  store i32 0, ptr %5, align 4
  store i32 1, ptr %14, align 4
  br label %173

19:                                               ; preds = %4
  %20 = load ptr, ptr %6, align 8, !tbaa !9
  %21 = getelementptr inbounds nuw %struct.uv_fs_poll_s, ptr %20, i32 0, i32 1
  %22 = load ptr, ptr %21, align 8, !tbaa !24
  store ptr %22, ptr %11, align 8, !tbaa !4
  %23 = load ptr, ptr %8, align 8, !tbaa !21
  %24 = call i64 @strlen(ptr noundef %23) #7
  store i64 %24, ptr %12, align 8, !tbaa !25
  %25 = load i64, ptr %12, align 8, !tbaa !25
  %26 = add i64 808, %25
  %27 = call ptr @uv__calloc(i64 noundef 1, i64 noundef %26)
  store ptr %27, ptr %10, align 8, !tbaa !27
  %28 = load ptr, ptr %10, align 8, !tbaa !27
  %29 = icmp eq ptr %28, null
  br i1 %29, label %30, label %31

30:                                               ; preds = %19
  store i32 -12, ptr %5, align 4
  store i32 1, ptr %14, align 4
  br label %173

31:                                               ; preds = %19
  %32 = load ptr, ptr %11, align 8, !tbaa !4
  %33 = load ptr, ptr %10, align 8, !tbaa !27
  %34 = getelementptr inbounds nuw %struct.poll_ctx, ptr %33, i32 0, i32 4
  store ptr %32, ptr %34, align 8, !tbaa !29
  %35 = load ptr, ptr %7, align 8, !tbaa !17
  %36 = load ptr, ptr %10, align 8, !tbaa !27
  %37 = getelementptr inbounds nuw %struct.poll_ctx, ptr %36, i32 0, i32 5
  store ptr %35, ptr %37, align 8, !tbaa !38
  %38 = load i32, ptr %9, align 4, !tbaa !23
  %39 = icmp ne i32 %38, 0
  br i1 %39, label %40, label %42

40:                                               ; preds = %31
  %41 = load i32, ptr %9, align 4, !tbaa !23
  br label %43

42:                                               ; preds = %31
  br label %43

43:                                               ; preds = %42, %40
  %44 = phi i32 [ %41, %40 ], [ 1, %42 ]
  %45 = load ptr, ptr %10, align 8, !tbaa !27
  %46 = getelementptr inbounds nuw %struct.poll_ctx, ptr %45, i32 0, i32 2
  store i32 %44, ptr %46, align 4, !tbaa !39
  %47 = load ptr, ptr %11, align 8, !tbaa !4
  %48 = call i64 @uv_now(ptr noundef %47)
  %49 = load ptr, ptr %10, align 8, !tbaa !27
  %50 = getelementptr inbounds nuw %struct.poll_ctx, ptr %49, i32 0, i32 3
  store i64 %48, ptr %50, align 8, !tbaa !40
  %51 = load ptr, ptr %6, align 8, !tbaa !9
  %52 = load ptr, ptr %10, align 8, !tbaa !27
  %53 = getelementptr inbounds nuw %struct.poll_ctx, ptr %52, i32 0, i32 0
  store ptr %51, ptr %53, align 8, !tbaa !41
  %54 = load ptr, ptr %10, align 8, !tbaa !27
  %55 = getelementptr inbounds nuw %struct.poll_ctx, ptr %54, i32 0, i32 10
  %56 = getelementptr inbounds [1 x i8], ptr %55, i64 0, i64 0
  %57 = load ptr, ptr %8, align 8, !tbaa !21
  %58 = load i64, ptr %12, align 8, !tbaa !25
  %59 = add i64 %58, 1
  call void @llvm.memcpy.p0.p0.i64(ptr align 8 %56, ptr align 1 %57, i64 %59, i1 false)
  %60 = load ptr, ptr %11, align 8, !tbaa !4
  %61 = load ptr, ptr %10, align 8, !tbaa !27
  %62 = getelementptr inbounds nuw %struct.poll_ctx, ptr %61, i32 0, i32 6
  %63 = call i32 @uv_timer_init(ptr noundef %60, ptr noundef %62)
  store i32 %63, ptr %13, align 4, !tbaa !23
  %64 = load i32, ptr %13, align 4, !tbaa !23
  %65 = icmp slt i32 %64, 0
  br i1 %65, label %66, label %67

66:                                               ; preds = %43
  br label %170

67:                                               ; preds = %43
  %68 = load ptr, ptr %10, align 8, !tbaa !27
  %69 = getelementptr inbounds nuw %struct.poll_ctx, ptr %68, i32 0, i32 6
  %70 = getelementptr inbounds nuw %struct.uv_timer_s, ptr %69, i32 0, i32 7
  %71 = load i32, ptr %70, align 8, !tbaa !42
  %72 = or i32 %71, 16
  store i32 %72, ptr %70, align 8, !tbaa !42
  br label %73

73:                                               ; preds = %67
  %74 = load ptr, ptr %10, align 8, !tbaa !27
  %75 = getelementptr inbounds nuw %struct.poll_ctx, ptr %74, i32 0, i32 6
  %76 = getelementptr inbounds nuw %struct.uv_timer_s, ptr %75, i32 0, i32 7
  %77 = load i32, ptr %76, align 8, !tbaa !42
  %78 = and i32 %77, 8
  %79 = icmp eq i32 %78, 0
  br i1 %79, label %80, label %81

80:                                               ; preds = %73
  br label %114

81:                                               ; preds = %73
  %82 = load ptr, ptr %10, align 8, !tbaa !27
  %83 = getelementptr inbounds nuw %struct.poll_ctx, ptr %82, i32 0, i32 6
  %84 = getelementptr inbounds nuw %struct.uv_timer_s, ptr %83, i32 0, i32 7
  %85 = load i32, ptr %84, align 8, !tbaa !42
  %86 = and i32 %85, -9
  store i32 %86, ptr %84, align 8, !tbaa !42
  %87 = load ptr, ptr %10, align 8, !tbaa !27
  %88 = getelementptr inbounds nuw %struct.poll_ctx, ptr %87, i32 0, i32 6
  %89 = getelementptr inbounds nuw %struct.uv_timer_s, ptr %88, i32 0, i32 7
  %90 = load i32, ptr %89, align 8, !tbaa !42
  %91 = and i32 %90, 1
  %92 = icmp ne i32 %91, 0
  br i1 %92, label %93, label %94

93:                                               ; preds = %81
  br label %114

94:                                               ; preds = %81
  %95 = load ptr, ptr %10, align 8, !tbaa !27
  %96 = getelementptr inbounds nuw %struct.poll_ctx, ptr %95, i32 0, i32 6
  %97 = getelementptr inbounds nuw %struct.uv_timer_s, ptr %96, i32 0, i32 7
  %98 = load i32, ptr %97, align 8, !tbaa !42
  %99 = and i32 %98, 4
  %100 = icmp ne i32 %99, 0
  br i1 %100, label %101, label %112

101:                                              ; preds = %94
  br label %102

102:                                              ; preds = %101
  %103 = load ptr, ptr %10, align 8, !tbaa !27
  %104 = getelementptr inbounds nuw %struct.poll_ctx, ptr %103, i32 0, i32 6
  %105 = getelementptr inbounds nuw %struct.uv_timer_s, ptr %104, i32 0, i32 1
  %106 = load ptr, ptr %105, align 8, !tbaa !43
  %107 = getelementptr inbounds nuw %struct.uv_loop_s, ptr %106, i32 0, i32 1
  %108 = load i32, ptr %107, align 8, !tbaa !44
  %109 = add i32 %108, -1
  store i32 %109, ptr %107, align 8, !tbaa !44
  br label %110

110:                                              ; preds = %102
  br label %111

111:                                              ; preds = %110
  br label %112

112:                                              ; preds = %111, %94
  br label %113

113:                                              ; preds = %112
  br label %114

114:                                              ; preds = %113, %93, %80
  %115 = load ptr, ptr %11, align 8, !tbaa !4
  %116 = load ptr, ptr %10, align 8, !tbaa !27
  %117 = getelementptr inbounds nuw %struct.poll_ctx, ptr %116, i32 0, i32 7
  %118 = load ptr, ptr %10, align 8, !tbaa !27
  %119 = getelementptr inbounds nuw %struct.poll_ctx, ptr %118, i32 0, i32 10
  %120 = getelementptr inbounds [1 x i8], ptr %119, i64 0, i64 0
  %121 = call i32 @uv_fs_stat(ptr noundef %115, ptr noundef %117, ptr noundef %120, ptr noundef @poll_cb)
  store i32 %121, ptr %13, align 4, !tbaa !23
  %122 = load i32, ptr %13, align 4, !tbaa !23
  %123 = icmp slt i32 %122, 0
  br i1 %123, label %124, label %125

124:                                              ; preds = %114
  br label %170

125:                                              ; preds = %114
  %126 = load ptr, ptr %6, align 8, !tbaa !9
  %127 = getelementptr inbounds nuw %struct.uv_fs_poll_s, ptr %126, i32 0, i32 8
  %128 = load ptr, ptr %127, align 8, !tbaa !19
  %129 = icmp ne ptr %128, null
  br i1 %129, label %130, label %136

130:                                              ; preds = %125
  %131 = load ptr, ptr %6, align 8, !tbaa !9
  %132 = getelementptr inbounds nuw %struct.uv_fs_poll_s, ptr %131, i32 0, i32 8
  %133 = load ptr, ptr %132, align 8, !tbaa !19
  %134 = load ptr, ptr %10, align 8, !tbaa !27
  %135 = getelementptr inbounds nuw %struct.poll_ctx, ptr %134, i32 0, i32 9
  store ptr %133, ptr %135, align 8, !tbaa !53
  br label %136

136:                                              ; preds = %130, %125
  %137 = load ptr, ptr %10, align 8, !tbaa !27
  %138 = load ptr, ptr %6, align 8, !tbaa !9
  %139 = getelementptr inbounds nuw %struct.uv_fs_poll_s, ptr %138, i32 0, i32 8
  store ptr %137, ptr %139, align 8, !tbaa !19
  br label %140

140:                                              ; preds = %136
  %141 = load ptr, ptr %6, align 8, !tbaa !9
  %142 = getelementptr inbounds nuw %struct.uv_fs_poll_s, ptr %141, i32 0, i32 7
  %143 = load i32, ptr %142, align 8, !tbaa !54
  %144 = and i32 %143, 4
  %145 = icmp ne i32 %144, 0
  br i1 %145, label %146, label %147

146:                                              ; preds = %140
  br label %169

147:                                              ; preds = %140
  %148 = load ptr, ptr %6, align 8, !tbaa !9
  %149 = getelementptr inbounds nuw %struct.uv_fs_poll_s, ptr %148, i32 0, i32 7
  %150 = load i32, ptr %149, align 8, !tbaa !54
  %151 = or i32 %150, 4
  store i32 %151, ptr %149, align 8, !tbaa !54
  %152 = load ptr, ptr %6, align 8, !tbaa !9
  %153 = getelementptr inbounds nuw %struct.uv_fs_poll_s, ptr %152, i32 0, i32 7
  %154 = load i32, ptr %153, align 8, !tbaa !54
  %155 = and i32 %154, 8
  %156 = icmp ne i32 %155, 0
  br i1 %156, label %157, label %167

157:                                              ; preds = %147
  br label %158

158:                                              ; preds = %157
  %159 = load ptr, ptr %6, align 8, !tbaa !9
  %160 = getelementptr inbounds nuw %struct.uv_fs_poll_s, ptr %159, i32 0, i32 1
  %161 = load ptr, ptr %160, align 8, !tbaa !24
  %162 = getelementptr inbounds nuw %struct.uv_loop_s, ptr %161, i32 0, i32 1
  %163 = load i32, ptr %162, align 8, !tbaa !44
  %164 = add i32 %163, 1
  store i32 %164, ptr %162, align 8, !tbaa !44
  br label %165

165:                                              ; preds = %158
  br label %166

166:                                              ; preds = %165
  br label %167

167:                                              ; preds = %166, %147
  br label %168

168:                                              ; preds = %167
  br label %169

169:                                              ; preds = %168, %146
  store i32 0, ptr %5, align 4
  store i32 1, ptr %14, align 4
  br label %173

170:                                              ; preds = %124, %66
  %171 = load ptr, ptr %10, align 8, !tbaa !27
  call void @uv__free(ptr noundef %171)
  %172 = load i32, ptr %13, align 4, !tbaa !23
  store i32 %172, ptr %5, align 4
  store i32 1, ptr %14, align 4
  br label %173

173:                                              ; preds = %170, %169, %30, %18
  call void @llvm.lifetime.end.p0(i64 4, ptr %13) #6
  call void @llvm.lifetime.end.p0(i64 8, ptr %12) #6
  call void @llvm.lifetime.end.p0(i64 8, ptr %11) #6
  call void @llvm.lifetime.end.p0(i64 8, ptr %10) #6
  %174 = load i32, ptr %5, align 4
  ret i32 %174
}