; Function Attrs: nounwind uwtable
define dso_local range(i32 -2147483648, 1) i32 @uv_fs_poll_start(ptr noundef %0, ptr noundef %1, ptr noundef readonly captures(none) %2, i32 noundef %3) local_unnamed_addr #1 {
  %5 = tail call i32 @uv_is_active(ptr noundef %0) #7
  %.not = icmp eq i32 %5, 0
  br i1 %.not, label %6, label %62

6:                                                ; preds = %4
  %7 = getelementptr inbounds nuw i8, ptr %0, i64 8
  %8 = load ptr, ptr %7, align 8, !tbaa !18
  %9 = tail call i64 @strlen(ptr noundef nonnull dereferenceable(1) %2) #8
  %10 = add i64 %9, 808
  %11 = tail call ptr @uv__calloc(i64 noundef 1, i64 noundef %10) #7
  %12 = icmp eq ptr %11, null
  br i1 %12, label %62, label %13

13:                                               ; preds = %6
  %14 = getelementptr inbounds nuw i8, ptr %11, i64 24
  store ptr %8, ptr %14, align 8, !tbaa !19
  %15 = getelementptr inbounds nuw i8, ptr %11, i64 32
  store ptr %1, ptr %15, align 8, !tbaa !32
  %16 = tail call i32 @llvm.umax.i32(i32 %3, i32 1)
  %17 = getelementptr inbounds nuw i8, ptr %11, i64 12
  store i32 %16, ptr %17, align 4, !tbaa !33
  %18 = tail call i64 @uv_now(ptr noundef %8) #7
  %19 = getelementptr inbounds nuw i8, ptr %11, i64 16
  store i64 %18, ptr %19, align 8, !tbaa !34
  store ptr %0, ptr %11, align 8, !tbaa !35
  %20 = getelementptr inbounds nuw i8, ptr %11, i64 800
  %21 = add i64 %9, 1
  tail call void @llvm.memcpy.p0.p0.i64(ptr nonnull align 8 %20, ptr nonnull align 1 %2, i64 %21, i1 false)
  %22 = getelementptr inbounds nuw i8, ptr %11, i64 40
  %23 = tail call i32 @uv_timer_init(ptr noundef %8, ptr noundef nonnull %22) #7
  %24 = icmp slt i32 %23, 0
  br i1 %24, label %61, label %25

25:                                               ; preds = %13
  %26 = getelementptr inbounds nuw i8, ptr %11, i64 128
  %27 = load i32, ptr %26, align 8, !tbaa !36
  %28 = or i32 %27, 16
  store i32 %28, ptr %26, align 8, !tbaa !36
  %29 = and i32 %27, 8
  %30 = icmp eq i32 %29, 0
  br i1 %30, label %40, label %31

31:                                               ; preds = %25
  %32 = and i32 %28, -9
  store i32 %32, ptr %26, align 8, !tbaa !36
  %33 = and i32 %27, 5
  %or.cond.not = icmp eq i32 %33, 4
  br i1 %or.cond.not, label %34, label %40

34:                                               ; preds = %31
  %35 = getelementptr inbounds nuw i8, ptr %11, i64 48
  %36 = load ptr, ptr %35, align 8, !tbaa !37
  %37 = getelementptr inbounds nuw i8, ptr %36, i64 8
  %38 = load i32, ptr %37, align 8, !tbaa !38
  %39 = add i32 %38, -1
  store i32 %39, ptr %37, align 8, !tbaa !38
  br label %40

40:                                               ; preds = %34, %31, %25
  %41 = getelementptr inbounds nuw i8, ptr %11, i64 192
  %42 = tail call i32 @uv_fs_stat(ptr noundef %8, ptr noundef nonnull %41, ptr noundef nonnull %20, ptr noundef nonnull @poll_cb) #7
  %43 = icmp slt i32 %42, 0
  br i1 %43, label %61, label %44

44:                                               ; preds = %40
  %45 = getelementptr inbounds nuw i8, ptr %0, i64 96
  %46 = load ptr, ptr %45, align 8, !tbaa !16
  %.not51 = icmp eq ptr %46, null
  br i1 %.not51, label %49, label %47

47:                                               ; preds = %44
  %48 = getelementptr inbounds nuw i8, ptr %11, i64 792
  store ptr %46, ptr %48, align 8, !tbaa !47
  br label %49

49:                                               ; preds = %47, %44
  store ptr %11, ptr %45, align 8, !tbaa !16
  %50 = getelementptr inbounds nuw i8, ptr %0, i64 88
  %51 = load i32, ptr %50, align 8, !tbaa !48
  %52 = and i32 %51, 4
  %.not52 = icmp eq i32 %52, 0
  br i1 %.not52, label %53, label %62

53:                                               ; preds = %49
  %54 = or disjoint i32 %51, 4
  store i32 %54, ptr %50, align 8, !tbaa !48
  %55 = and i32 %51, 8
  %.not53 = icmp eq i32 %55, 0
  br i1 %.not53, label %62, label %56

56:                                               ; preds = %53
  %57 = load ptr, ptr %7, align 8, !tbaa !18
  %58 = getelementptr inbounds nuw i8, ptr %57, i64 8
  %59 = load i32, ptr %58, align 8, !tbaa !38
  %60 = add i32 %59, 1
  store i32 %60, ptr %58, align 8, !tbaa !38
  br label %62

61:                                               ; preds = %40, %13
  %.0 = phi i32 [ %23, %13 ], [ %42, %40 ]
  tail call void @uv__free(ptr noundef nonnull %11) #7
  br label %62

62:                                               ; preds = %49, %53, %56, %6, %4, %61
  %.043 = phi i32 [ %.0, %61 ], [ 0, %4 ], [ -12, %6 ], [ 0, %56 ], [ 0, %53 ], [ 0, %49 ]
  ret i32 %.043
}